target datalayout = "e-m:e-p270:32:32-p271:32:32-p272:64:64-i64:64-i128:128-f80:128-n8:16:32:64-S128"
target triple = "x86_64-pc-linux-gnu"

@.str.13 = private unnamed_addr constant [8 x i8] c"Unknown\00", align 1
@.str.14 = private unnamed_addr constant [25 x i8] c"%s Topology (0x%03x)%s%s\00", align 1
@.str.15 = private unnamed_addr constant [19 x i8] c", Overload bit set\00", align 1
@.str.16 = private unnamed_addr constant [1 x i8] zeroinitializer, align 1
@.str.17 = private unnamed_addr constant [14 x i8] c", ATT bit set\00", align 1

; Function Attrs: null_pointer_is_valid sspstrong uwtable
define hidden void @isis_dissect_mt_clv(ptr noundef %0, ptr noundef %1, ptr noundef %2, i32 noundef %3, i32 noundef %4, i32 noundef %5, ptr noundef %6) #0 {
  %8 = alloca ptr, align 8
  %9 = alloca ptr, align 8
  %10 = alloca ptr, align 8
  %11 = alloca i32, align 4
  %12 = alloca i32, align 4
  %13 = alloca i32, align 4
  %14 = alloca ptr, align 8
  %15 = alloca i16, align 2
  %16 = alloca ptr, align 8
  store ptr %0, ptr %8, align 8
  store ptr %1, ptr %9, align 8
  store ptr %2, ptr %10, align 8
  store i32 %3, ptr %11, align 4
  store i32 %4, ptr %12, align 4
  store i32 %5, ptr %13, align 4
  store ptr %6, ptr %14, align 8
  call void @llvm.lifetime.start.p0(i64 2, ptr %15) #3
  call void @llvm.lifetime.start.p0(i64 8, ptr %16) #3
  br label %17

17:                                               ; preds = %59, %7
  %18 = load i32, ptr %12, align 4
  %19 = icmp sgt i32 %18, 0
  br i1 %19, label %20, label %64

20:                                               ; preds = %17
  %21 = load i32, ptr %12, align 4
  %22 = icmp ne i32 %21, 1
  br i1 %22, label %23, label %52

23:                                               ; preds = %20
  %24 = load ptr, ptr %8, align 8
  %25 = load i32, ptr %11, align 4
  %26 = call zeroext i16 @tvb_get_ntohs(ptr noundef %24, i32 noundef %25)
  store i16 %26, ptr %15, align 2
  %27 = load i16, ptr %15, align 2
  %28 = zext i16 %27 to i32
  %29 = and i32 %28, 4095
  %30 = call ptr @val_to_str_const(i32 noundef %29, ptr noundef @mt_id_vals, ptr noundef @.str.13)
  store ptr %30, ptr %16, align 8
  %31 = load ptr, ptr %10, align 8
  %32 = load i32, ptr %13, align 4
  %33 = load ptr, ptr %8, align 8
  %34 = load i32, ptr %11, align 4
  %35 = load i16, ptr %15, align 2
  %36 = zext i16 %35 to i32
  %37 = load ptr, ptr %16, align 8
  %38 = load i16, ptr %15, align 2
  %39 = zext i16 %38 to i32
  %40 = and i32 %39, 4095
  %41 = load i16, ptr %15, align 2
  %42 = zext i16 %41 to i32
  %43 = and i32 %42, 32768
  %44 = icmp ne i32 %43, 0
  %45 = select i1 %44, ptr @.str.15, ptr @.str.16
  %46 = load i16, ptr %15, align 2
  %47 = zext i16 %46 to i32
  %48 = and i32 %47, 16384
  %49 = icmp ne i32 %48, 0
  %50 = select i1 %49, ptr @.str.17, ptr @.str.16
  %51 = call ptr (ptr, i32, ptr, i32, i32, i32, ptr, ...) @proto_tree_add_uint_format(ptr noundef %31, i32 noundef %32, ptr noundef %33, i32 noundef %34, i32 noundef 2, i32 noundef %36, ptr noundef @.str.14, ptr noundef %37, i32 noundef %40, ptr noundef %45, ptr noundef %50)
  br label %59

52:                                               ; preds = %20
  %53 = load ptr, ptr %10, align 8
  %54 = load ptr, ptr %9, align 8
  %55 = load ptr, ptr %14, align 8
  %56 = load ptr, ptr %8, align 8
  %57 = load i32, ptr %11, align 4
  %58 = call ptr @proto_tree_add_expert(ptr noundef %53, ptr noundef %54, ptr noundef %55, ptr noundef %56, i32 noundef %57, i32 noundef 1)
  br label %64

59:                                               ; preds = %23
  %60 = load i32, ptr %12, align 4
  %61 = sub i32 %60, 2
  store i32 %61, ptr %12, align 4
  %62 = load i32, ptr %11, align 4
  %63 = add i32 %62, 2
  store i32 %63, ptr %11, align 4
  br label %17, !llvm.loop !10

64:                                               ; preds = %52, %17
  call void @llvm.lifetime.end.p0(i64 8, ptr %16) #3
  call void @llvm.lifetime.end.p0(i64 2, ptr %15) #3
  ret void
}