; Function Attrs: null_pointer_is_valid sspstrong uwtable
define hidden void @isis_dissect_mt_clv(ptr noundef %0, ptr noundef %1, ptr noundef %2, i32 noundef %3, i32 noundef %4, i32 noundef %5, ptr noundef %6) local_unnamed_addr #0 {
  %8 = icmp sgt i32 %4, 0
  br i1 %8, label %.lr.ph, label %.loopexit

.lr.ph:                                           ; preds = %7, %9
  %.025 = phi i32 [ %19, %9 ], [ %3, %7 ]
  %.02024 = phi i32 [ %18, %9 ], [ %4, %7 ]
  %.not = icmp eq i32 %.02024, 1
  br i1 %.not, label %21, label %9

9:                                                ; preds = %.lr.ph
  %10 = tail call zeroext i16 @tvb_get_ntohs(ptr noundef %0, i32 noundef %.025)
  %11 = zext i16 %10 to i32
  %12 = and i32 %11, 4095
  %13 = tail call ptr @val_to_str_const(i32 noundef %12, ptr noundef nonnull @mt_id_vals, ptr noundef nonnull @.str.13)
  %.not21 = icmp sgt i16 %10, -1
  %14 = select i1 %.not21, ptr @.str.16, ptr @.str.15
  %15 = and i32 %11, 16384
  %.not22 = icmp eq i32 %15, 0
  %16 = select i1 %.not22, ptr @.str.16, ptr @.str.17
  %17 = tail call ptr (ptr, i32, ptr, i32, i32, i32, ptr, ...) @proto_tree_add_uint_format(ptr noundef %2, i32 noundef %5, ptr noundef %0, i32 noundef %.025, i32 noundef 2, i32 noundef %11, ptr noundef nonnull @.str.14, ptr noundef %13, i32 noundef %12, ptr noundef nonnull %14, ptr noundef nonnull %16)
  %18 = add nsw i32 %.02024, -2
  %19 = add i32 %.025, 2
  %20 = icmp samesign ugt i32 %.02024, 2
  br i1 %20, label %.lr.ph, label %.loopexit, !llvm.loop !10

21:                                               ; preds = %.lr.ph
  %22 = tail call ptr @proto_tree_add_expert(ptr noundef %2, ptr noundef %1, ptr noundef %6, ptr noundef %0, i32 noundef %.025, i32 noundef 1)
  br label %.loopexit

.loopexit:                                        ; preds = %9, %7, %21
  ret void
}